(dp1
S'plugin_reduce'
p2
ccopy_reg
_reconstructor
p3
(ctwisted.plugin
CachedDropin
p4
c__builtin__
object
p5
NtRp6
(dp7
S'moduleName'
p8
S'twisted.plugins.plugin_reduce'
p9
sS'description'
p10
NsS'plugins'
p11
(lp12
g3
(ctwisted.plugin
CachedPlugin
p13
g5
NtRp14
(dp15
S'provided'
p16
(lp17
ctwisted.application.service
IServiceMaker
p18
actwisted.plugin
IPlugin
p19
asS'dropin'
p20
g6
sS'name'
p21
S'service_maker'
p22
sg10
NsbasbsS'plugin_master'
p23
g3
(g4
g5
NtRp24
(dp25
g8
S'twisted.plugins.plugin_master'
p26
sg10
Nsg11
(lp27
g3
(g13
g5
NtRp28
(dp29
g16
(lp30
g18
ag19
asg20
g24
sg21
S'service_maker'
p31
sg10
NsbasbsS'plugin_map'
p32
g3
(g4
g5
NtRp33
(dp34
g8
S'twisted.plugins.plugin_map'
p35
sg10
Nsg11
(lp36
g3
(g13
g5
NtRp37
(dp38
g16
(lp39
g18
ag19
asg20
g33
sg21
S'service_maker'
p40
sg10
Nsbasbs.